; ModuleID = 'source-C-CXX/44/728.c'
source_filename = "source-C-CXX/44/728.c"
target datalayout = "e-m:e-p270:32:32-p271:32:32-p272:64:64-i64:64-f80:128-n8:16:32:64-S128"
target triple = "x86_64-pc-linux-gnu"

%struct._IO_FILE = type { i32, i8*, i8*, i8*, i8*, i8*, i8*, i8*, i8*, i8*, i8*, i8*, %struct._IO_marker*, %struct._IO_FILE*, i32, i32, i64, i16, i8, [1 x i8], i8*, i64, %struct._IO_codecvt*, %struct._IO_wide_data*, %struct._IO_FILE*, i8*, i64, i32, [20 x i8] }
%struct._IO_marker = type opaque
%struct._IO_codecvt = type opaque
%struct._IO_wide_data = type opaque

@.str = private unnamed_addr constant [3 x i8] c"%s\00", align 1
@.str.1 = private unnamed_addr constant [3 x i8] c"%d\00", align 1
@stdin = external local_unnamed_addr global %struct._IO_FILE*, align 8

; Function Attrs: nofree nounwind sspstrong uwtable
define dso_local i32 @main() local_unnamed_addr #0 {
  %1 = alloca [50 x i8], align 16
  %2 = alloca [50 x i8], align 16
  %3 = getelementptr inbounds [50 x i8], [50 x i8]* %1, i64 0, i64 0
  call void @llvm.lifetime.start.p0i8(i64 50, i8* nonnull %3) #5
  %4 = getelementptr inbounds [50 x i8], [50 x i8]* %2, i64 0, i64 0
  call void @llvm.lifetime.start.p0i8(i64 50, i8* nonnull %4) #5
  %5 = call i32 (i8*, ...) @__isoc99_scanf(i8* getelementptr inbounds ([3 x i8], [3 x i8]* @.str, i64 0, i64 0), i8* nonnull %3)
  %6 = load %struct._IO_FILE*, %struct._IO_FILE** @stdin, align 8, !tbaa !5
  %7 = call i32 @getc(%struct._IO_FILE* %6) #5
  %8 = call i32 (i8*, ...) @__isoc99_scanf(i8* getelementptr inbounds ([3 x i8], [3 x i8]* @.str, i64 0, i64 0), i8* nonnull %4)
  %9 = call i64 @strlen(i8* noundef nonnull %3) #6
  %10 = trunc i64 %9 to i32
  %11 = call i64 @strlen(i8* noundef nonnull %4) #6
  %12 = trunc i64 %11 to i32
  %13 = icmp slt i32 %12, %10
  br i1 %13, label %51, label %14

14:                                               ; preds = %0
  %15 = add i64 %11, 1
  %16 = sub i64 %15, %9
  %17 = and i64 %16, 4294967295
  %18 = icmp sgt i32 %10, 0
  br label %19

19:                                               ; preds = %14, %46
  %20 = phi i32 [ 1, %14 ], [ %49, %46 ]
  %21 = phi i32 [ %10, %14 ], [ %48, %46 ]
  %22 = phi i64 [ 0, %14 ], [ %47, %46 ]
  %23 = call i32 @llvm.smax.i32(i32 %21, i32 %20)
  %24 = trunc i64 %22 to i32
  %25 = add nsw i32 %24, %10
  br i1 %18, label %26, label %40

26:                                               ; preds = %19, %34
  %27 = phi i64 [ %35, %34 ], [ %22, %19 ]
  %28 = getelementptr inbounds [50 x i8], [50 x i8]* %2, i64 0, i64 %27
  %29 = load i8, i8* %28, align 1, !tbaa !9
  %30 = sub nuw nsw i64 %27, %22
  %31 = getelementptr inbounds [50 x i8], [50 x i8]* %1, i64 0, i64 %30
  %32 = load i8, i8* %31, align 1, !tbaa !9
  %33 = icmp eq i8 %29, %32
  br i1 %33, label %34, label %38

34:                                               ; preds = %26
  %35 = add nuw nsw i64 %27, 1
  %36 = trunc i64 %35 to i32
  %37 = icmp sgt i32 %25, %36
  br i1 %37, label %26, label %40, !llvm.loop !10

38:                                               ; preds = %26
  %39 = trunc i64 %27 to i32
  br label %40

40:                                               ; preds = %34, %38, %19
  %41 = phi i32 [ %24, %19 ], [ %39, %38 ], [ %23, %34 ]
  %42 = icmp eq i32 %41, %25
  br i1 %42, label %43, label %46

43:                                               ; preds = %40
  %44 = trunc i64 %22 to i32
  %45 = call i32 (i8*, ...) @printf(i8* nonnull dereferenceable(1) getelementptr inbounds ([3 x i8], [3 x i8]* @.str.1, i64 0, i64 0), i32 %44)
  br label %51

46:                                               ; preds = %40
  %47 = add nuw nsw i64 %22, 1
  %48 = add i32 %21, 1
  %49 = add nuw i32 %20, 1
  %50 = icmp eq i64 %47, %17
  br i1 %50, label %51, label %19, !llvm.loop !12

51:                                               ; preds = %46, %0, %43
  call void @llvm.lifetime.end.p0i8(i64 50, i8* nonnull %4) #5
  call void @llvm.lifetime.end.p0i8(i64 50, i8* nonnull %3) #5
  ret i32 0
}

; Function Attrs: argmemonly mustprogress nofree nosync nounwind willreturn
declare void @llvm.lifetime.start.p0i8(i64 immarg, i8* nocapture) #1

; Function Attrs: nofree nounwind
declare noundef i32 @__isoc99_scanf(i8* nocapture noundef readonly, ...) local_unnamed_addr #2

; Function Attrs: argmemonly mustprogress nofree nounwind readonly willreturn
declare i64 @strlen(i8* nocapture) local_unnamed_addr #3

; Function Attrs: nofree nounwind
declare noundef i32 @printf(i8* nocapture noundef readonly, ...) local_unnamed_addr #2

; Function Attrs: argmemonly mustprogress nofree nosync nounwind willreturn
declare void @llvm.lifetime.end.p0i8(i64 immarg, i8* nocapture) #1

; Function Attrs: nofree nounwind
declare noundef i32 @getc(%struct._IO_FILE* nocapture noundef) local_unnamed_addr #2

; Function Attrs: nofree nosync nounwind readnone speculatable willreturn
declare i32 @llvm.smax.i32(i32, i32) #4


!llvm.module.flags = !{!0, !1, !2, !3}
!llvm.ident = !{!4}

!0 = !{i32 1, !"wchar_size", i32 4}
!1 = !{i32 7, !"PIC Level", i32 2}
!2 = !{i32 7, !"PIE Level", i32 2}
!3 = !{i32 7, !"uwtable", i32 1}
!4 = !{!"clang version 13.0.0"}
!5 = !{!6, !6, i64 0}
!6 = !{!"any pointer", !7, i64 0}
!7 = !{!"omnipotent char", !8, i64 0}
!8 = !{!"Simple C/C++ TBAA"}
!9 = !{!7, !7, i64 0}
!10 = distinct !{!10, !11}
!11 = !{!"llvm.loop.mustprogress"}
!12 = distinct !{!12, !11}
